target datalayout = "e-m:e-p270:32:32-p271:32:32-p272:64:64-i64:64-i128:128-f80:128-n8:16:32:64-S128"
target triple = "x86_64-unknown-linux-gnu"

; Function Attrs: mustprogress nounwind uwtable
define internal noundef signext i8 @_ZN6icu_7512_GLOBAL__N_113mungeCharNameEPcPKci(ptr noundef %dst, ptr noundef %src, i32 noundef %dstCapacity) #0 {
entry:
  %retval = alloca i8, align 1
  %dst.addr = alloca ptr, align 8
  %src.addr = alloca ptr, align 8
  %dstCapacity.addr = alloca i32, align 4
  %j = alloca i32, align 4
  %ch = alloca i8, align 1
  store ptr %dst, ptr %dst.addr, align 8
  store ptr %src, ptr %src.addr, align 8
  store i32 %dstCapacity, ptr %dstCapacity.addr, align 4
  store i32 0, ptr %j, align 4
  %0 = load i32, ptr %dstCapacity.addr, align 4
  %dec = add nsw i32 %0, -1
  store i32 %dec, ptr %dstCapacity.addr, align 4
  br label %while.cond

while.cond:                                       ; preds = %if.end10, %if.then, %entry
  %1 = load ptr, ptr %src.addr, align 8
  %incdec.ptr = getelementptr inbounds i8, ptr %1, i32 1
  store ptr %incdec.ptr, ptr %src.addr, align 8
  %2 = load i8, ptr %1, align 1
  store i8 %2, ptr %ch, align 1
  %conv = sext i8 %2 to i32
  %cmp = icmp ne i32 %conv, 0
  br i1 %cmp, label %while.body, label %while.end

while.body:                                       ; preds = %while.cond
  %3 = load i8, ptr %ch, align 1
  %conv1 = sext i8 %3 to i32
  %cmp2 = icmp eq i32 %conv1, 32
  br i1 %cmp2, label %land.lhs.true, label %if.end

land.lhs.true:                                    ; preds = %while.body
  %4 = load i32, ptr %j, align 4
  %cmp3 = icmp eq i32 %4, 0
  br i1 %cmp3, label %if.then, label %lor.lhs.false

lor.lhs.false:                                    ; preds = %land.lhs.true
  %5 = load i32, ptr %j, align 4
  %cmp4 = icmp sgt i32 %5, 0
  br i1 %cmp4, label %land.lhs.true5, label %if.end

land.lhs.true5:                                   ; preds = %lor.lhs.false
  %6 = load ptr, ptr %dst.addr, align 8
  %7 = load i32, ptr %j, align 4
  %sub = sub nsw i32 %7, 1
  %idxprom = sext i32 %sub to i64
  %arrayidx = getelementptr inbounds i8, ptr %6, i64 %idxprom
  %8 = load i8, ptr %arrayidx, align 1
  %conv6 = sext i8 %8 to i32
  %cmp7 = icmp eq i32 %conv6, 32
  br i1 %cmp7, label %if.then, label %if.end

if.then:                                          ; preds = %land.lhs.true5, %land.lhs.true
  br label %while.cond, !llvm.loop !11

if.end:                                           ; preds = %land.lhs.true5, %lor.lhs.false, %while.body
  %9 = load i32, ptr %j, align 4
  %10 = load i32, ptr %dstCapacity.addr, align 4
  %cmp8 = icmp sge i32 %9, %10
  br i1 %cmp8, label %if.then9, label %if.end10

if.then9:                                         ; preds = %if.end
  store i8 0, ptr %retval, align 1
  br label %return

if.end10:                                         ; preds = %if.end
  %11 = load i8, ptr %ch, align 1
  %12 = load ptr, ptr %dst.addr, align 8
  %13 = load i32, ptr %j, align 4
  %inc = add nsw i32 %13, 1
  store i32 %inc, ptr %j, align 4
  %idxprom11 = sext i32 %13 to i64
  %arrayidx12 = getelementptr inbounds i8, ptr %12, i64 %idxprom11
  store i8 %11, ptr %arrayidx12, align 1
  br label %while.cond, !llvm.loop !11

while.end:                                        ; preds = %while.cond
  %14 = load i32, ptr %j, align 4
  %cmp13 = icmp sgt i32 %14, 0
  br i1 %cmp13, label %land.lhs.true14, label %if.end22

land.lhs.true14:                                  ; preds = %while.end
  %15 = load ptr, ptr %dst.addr, align 8
  %16 = load i32, ptr %j, align 4
  %sub15 = sub nsw i32 %16, 1
  %idxprom16 = sext i32 %sub15 to i64
  %arrayidx17 = getelementptr inbounds i8, ptr %15, i64 %idxprom16
  %17 = load i8, ptr %arrayidx17, align 1
  %conv18 = sext i8 %17 to i32
  %cmp19 = icmp eq i32 %conv18, 32
  br i1 %cmp19, label %if.then20, label %if.end22

if.then20:                                        ; preds = %land.lhs.true14
  %18 = load i32, ptr %j, align 4
  %dec21 = add nsw i32 %18, -1
  store i32 %dec21, ptr %j, align 4
  br label %if.end22

if.end22:                                         ; preds = %if.then20, %land.lhs.true14, %while.end
  %19 = load ptr, ptr %dst.addr, align 8
  %20 = load i32, ptr %j, align 4
  %idxprom23 = sext i32 %20 to i64
  %arrayidx24 = getelementptr inbounds i8, ptr %19, i64 %idxprom23
  store i8 0, ptr %arrayidx24, align 1
  store i8 1, ptr %retval, align 1
  br label %return

return:                                           ; preds = %if.end22, %if.then9
  %21 = load i8, ptr %retval, align 1
  ret i8 %21
}